
Positionsmodul.elf:     file format elf32-avr

Sections:
Idx Name          Size      VMA       LMA       File off  Algn
  0 .data         0000008a  00800100  00000276  0000030a  2**0
                  CONTENTS, ALLOC, LOAD, DATA
  1 .text         00000276  00000000  00000000  00000094  2**1
                  CONTENTS, ALLOC, LOAD, READONLY, CODE
  2 .bss          00000001  0080018a  0080018a  00000394  2**0
                  ALLOC
  3 .comment      00000030  00000000  00000000  00000394  2**0
                  CONTENTS, READONLY
  4 .debug_aranges 00000070  00000000  00000000  000003c4  2**0
                  CONTENTS, READONLY, DEBUGGING
  5 .debug_info   000004b4  00000000  00000000  00000434  2**0
                  CONTENTS, READONLY, DEBUGGING
  6 .debug_abbrev 000001e2  00000000  00000000  000008e8  2**0
                  CONTENTS, READONLY, DEBUGGING
  7 .debug_line   00000268  00000000  00000000  00000aca  2**0
                  CONTENTS, READONLY, DEBUGGING
  8 .debug_frame  0000014c  00000000  00000000  00000d34  2**2
                  CONTENTS, READONLY, DEBUGGING
  9 .debug_str    0000023a  00000000  00000000  00000e80  2**0
                  CONTENTS, READONLY, DEBUGGING
 10 .debug_loc    00000245  00000000  00000000  000010ba  2**0
                  CONTENTS, READONLY, DEBUGGING
 11 .debug_ranges 00000060  00000000  00000000  000012ff  2**0
                  CONTENTS, READONLY, DEBUGGING

Disassembly of section .text:

00000000 <__vectors>:
   0:	0c 94 3e 00 	jmp	0x7c	; 0x7c <__ctors_end>
   4:	0c 94 5b 00 	jmp	0xb6	; 0xb6 <__bad_interrupt>
   8:	0c 94 5b 00 	jmp	0xb6	; 0xb6 <__bad_interrupt>
   c:	0c 94 5b 00 	jmp	0xb6	; 0xb6 <__bad_interrupt>
  10:	0c 94 5b 00 	jmp	0xb6	; 0xb6 <__bad_interrupt>
  14:	0c 94 5b 00 	jmp	0xb6	; 0xb6 <__bad_interrupt>
  18:	0c 94 5b 00 	jmp	0xb6	; 0xb6 <__bad_interrupt>
  1c:	0c 94 5b 00 	jmp	0xb6	; 0xb6 <__bad_interrupt>
  20:	0c 94 5b 00 	jmp	0xb6	; 0xb6 <__bad_interrupt>
  24:	0c 94 5b 00 	jmp	0xb6	; 0xb6 <__bad_interrupt>
  28:	0c 94 5b 00 	jmp	0xb6	; 0xb6 <__bad_interrupt>
  2c:	0c 94 5b 00 	jmp	0xb6	; 0xb6 <__bad_interrupt>
  30:	0c 94 5b 00 	jmp	0xb6	; 0xb6 <__bad_interrupt>
  34:	0c 94 5b 00 	jmp	0xb6	; 0xb6 <__bad_interrupt>
  38:	0c 94 5b 00 	jmp	0xb6	; 0xb6 <__bad_interrupt>
  3c:	0c 94 5b 00 	jmp	0xb6	; 0xb6 <__bad_interrupt>
  40:	0c 94 5b 00 	jmp	0xb6	; 0xb6 <__bad_interrupt>
  44:	0c 94 5b 00 	jmp	0xb6	; 0xb6 <__bad_interrupt>
  48:	0c 94 5b 00 	jmp	0xb6	; 0xb6 <__bad_interrupt>
  4c:	0c 94 5b 00 	jmp	0xb6	; 0xb6 <__bad_interrupt>
  50:	0c 94 f5 00 	jmp	0x1ea	; 0x1ea <__vector_20>
  54:	0c 94 5b 00 	jmp	0xb6	; 0xb6 <__bad_interrupt>
  58:	0c 94 5b 00 	jmp	0xb6	; 0xb6 <__bad_interrupt>
  5c:	0c 94 5b 00 	jmp	0xb6	; 0xb6 <__bad_interrupt>
  60:	0c 94 5b 00 	jmp	0xb6	; 0xb6 <__bad_interrupt>
  64:	0c 94 5b 00 	jmp	0xb6	; 0xb6 <__bad_interrupt>
  68:	0c 94 5b 00 	jmp	0xb6	; 0xb6 <__bad_interrupt>
  6c:	0c 94 5b 00 	jmp	0xb6	; 0xb6 <__bad_interrupt>
  70:	0c 94 5b 00 	jmp	0xb6	; 0xb6 <__bad_interrupt>
  74:	0c 94 5b 00 	jmp	0xb6	; 0xb6 <__bad_interrupt>
  78:	0c 94 5b 00 	jmp	0xb6	; 0xb6 <__bad_interrupt>

0000007c <__ctors_end>:
  7c:	11 24       	eor	r1, r1
  7e:	1f be       	out	0x3f, r1	; 63
  80:	cf ef       	ldi	r28, 0xFF	; 255
  82:	d0 e1       	ldi	r29, 0x10	; 16
  84:	de bf       	out	0x3e, r29	; 62
  86:	cd bf       	out	0x3d, r28	; 61

00000088 <__do_copy_data>:
  88:	11 e0       	ldi	r17, 0x01	; 1
  8a:	a0 e0       	ldi	r26, 0x00	; 0
  8c:	b1 e0       	ldi	r27, 0x01	; 1
  8e:	e6 e7       	ldi	r30, 0x76	; 118
  90:	f2 e0       	ldi	r31, 0x02	; 2
  92:	02 c0       	rjmp	.+4      	; 0x98 <__do_copy_data+0x10>
  94:	05 90       	lpm	r0, Z+
  96:	0d 92       	st	X+, r0
  98:	aa 38       	cpi	r26, 0x8A	; 138
  9a:	b1 07       	cpc	r27, r17
  9c:	d9 f7       	brne	.-10     	; 0x94 <__do_copy_data+0xc>

0000009e <__do_clear_bss>:
  9e:	21 e0       	ldi	r18, 0x01	; 1
  a0:	aa e8       	ldi	r26, 0x8A	; 138
  a2:	b1 e0       	ldi	r27, 0x01	; 1
  a4:	01 c0       	rjmp	.+2      	; 0xa8 <.do_clear_bss_start>

000000a6 <.do_clear_bss_loop>:
  a6:	1d 92       	st	X+, r1

000000a8 <.do_clear_bss_start>:
  a8:	ab 38       	cpi	r26, 0x8B	; 139
  aa:	b2 07       	cpc	r27, r18
  ac:	e1 f7       	brne	.-8      	; 0xa6 <.do_clear_bss_loop>
  ae:	0e 94 1f 01 	call	0x23e	; 0x23e <main>
  b2:	0c 94 39 01 	jmp	0x272	; 0x272 <_exit>

000000b6 <__bad_interrupt>:
  b6:	0c 94 00 00 	jmp	0	; 0x0 <__vectors>

000000ba <uart_init>:
unsigned char atCom4[] = {"AT+P2PFIND=20000,2\n\r"};
	
volatile char REC;

void uart_init(void) {
	UBRR0H = (BAUDRATE >> 8);
  ba:	10 92 c5 00 	sts	0x00C5, r1
	UBRR0L = BAUDRATE;
  be:	81 e8       	ldi	r24, 0x81	; 129
  c0:	80 93 c4 00 	sts	0x00C4, r24
	
	UCSR0B |= (1 << TXEN0) | (1 << RXEN0);
  c4:	e1 ec       	ldi	r30, 0xC1	; 193
  c6:	f0 e0       	ldi	r31, 0x00	; 0
  c8:	80 81       	ld	r24, Z
  ca:	88 61       	ori	r24, 0x18	; 24
  cc:	80 83       	st	Z, r24
	UCSR0C |= (1 << UCSZ01) | ( 1<< UCSZ00);
  ce:	a2 ec       	ldi	r26, 0xC2	; 194
  d0:	b0 e0       	ldi	r27, 0x00	; 0
  d2:	8c 91       	ld	r24, X
  d4:	86 60       	ori	r24, 0x06	; 6
  d6:	8c 93       	st	X, r24
	
	UCSR0B |= (1 << RXCIE0);
  d8:	80 81       	ld	r24, Z
  da:	80 68       	ori	r24, 0x80	; 128
  dc:	80 83       	st	Z, r24
	UCSR0A |= (1 << RXC0);
  de:	e0 ec       	ldi	r30, 0xC0	; 192
  e0:	f0 e0       	ldi	r31, 0x00	; 0
  e2:	80 81       	ld	r24, Z
  e4:	80 68       	ori	r24, 0x80	; 128
  e6:	80 83       	st	Z, r24
	
	sei();
  e8:	78 94       	sei
  ea:	08 95       	ret

000000ec <uart_init2>:
}

void uart_init2(void) {
	UBRR1H = (BAUDRATE >> 8);
  ec:	10 92 cd 00 	sts	0x00CD, r1
	UBRR1L = BAUDRATE;
  f0:	81 e8       	ldi	r24, 0x81	; 129
  f2:	80 93 cc 00 	sts	0x00CC, r24
	
	UCSR1B |= (1 << TXEN1) | (1 << RXEN1);
  f6:	e9 ec       	ldi	r30, 0xC9	; 201
  f8:	f0 e0       	ldi	r31, 0x00	; 0
  fa:	80 81       	ld	r24, Z
  fc:	88 61       	ori	r24, 0x18	; 24
  fe:	80 83       	st	Z, r24
	UCSR1C |= (1 << UCSZ11) | ( 1<< UCSZ10);
 100:	ea ec       	ldi	r30, 0xCA	; 202
 102:	f0 e0       	ldi	r31, 0x00	; 0
 104:	80 81       	ld	r24, Z
 106:	86 60       	ori	r24, 0x06	; 6
 108:	80 83       	st	Z, r24
 10a:	08 95       	ret

0000010c <uart_transmit>:
	
}

void uart_transmit(char c) {
	while(!(UCSR0A & (1 << UDRE0)));
 10c:	e0 ec       	ldi	r30, 0xC0	; 192
 10e:	f0 e0       	ldi	r31, 0x00	; 0
 110:	90 81       	ld	r25, Z
 112:	95 ff       	sbrs	r25, 5
 114:	fd cf       	rjmp	.-6      	; 0x110 <uart_transmit+0x4>
	UDR0 = c;
 116:	80 93 c6 00 	sts	0x00C6, r24
 11a:	08 95       	ret

0000011c <uart_transmit2>:
	while(!(UCSR0A & (1 << RXC0)));
	return UDR0;
}

void uart_transmit2(char c) {
	while(!(UCSR1A & (1 << UDRE1)));
 11c:	e8 ec       	ldi	r30, 0xC8	; 200
 11e:	f0 e0       	ldi	r31, 0x00	; 0
 120:	90 81       	ld	r25, Z
 122:	95 ff       	sbrs	r25, 5
 124:	fd cf       	rjmp	.-6      	; 0x120 <uart_transmit2+0x4>
	UDR1 = c;
 126:	80 93 ce 00 	sts	0x00CE, r24
 12a:	08 95       	ret

0000012c <uart_sendString>:
char uart_read2() {
	while(!(UCSR1A & (1 << RXC1)));
	return UDR1;
}

void uart_sendString(char temp[]) {
 12c:	ef 92       	push	r14
 12e:	ff 92       	push	r15
 130:	0f 93       	push	r16
 132:	1f 93       	push	r17
 134:	cf 93       	push	r28
 136:	df 93       	push	r29
 138:	8c 01       	movw	r16, r24
 13a:	7c 01       	movw	r14, r24
	for(int i=0; i < strlen(temp); i++) {
 13c:	c0 e0       	ldi	r28, 0x00	; 0
 13e:	d0 e0       	ldi	r29, 0x00	; 0
 140:	06 c0       	rjmp	.+12     	; 0x14e <uart_sendString+0x22>
		uart_transmit(temp[i]);
 142:	f7 01       	movw	r30, r14
 144:	81 91       	ld	r24, Z+
 146:	7f 01       	movw	r14, r30
 148:	0e 94 86 00 	call	0x10c	; 0x10c <uart_transmit>
	while(!(UCSR1A & (1 << RXC1)));
	return UDR1;
}

void uart_sendString(char temp[]) {
	for(int i=0; i < strlen(temp); i++) {
 14c:	21 96       	adiw	r28, 0x01	; 1
 14e:	f8 01       	movw	r30, r16
 150:	01 90       	ld	r0, Z+
 152:	00 20       	and	r0, r0
 154:	e9 f7       	brne	.-6      	; 0x150 <uart_sendString+0x24>
 156:	31 97       	sbiw	r30, 0x01	; 1
 158:	e0 1b       	sub	r30, r16
 15a:	f1 0b       	sbc	r31, r17
 15c:	ce 17       	cp	r28, r30
 15e:	df 07       	cpc	r29, r31
 160:	80 f3       	brcs	.-32     	; 0x142 <uart_sendString+0x16>
		uart_transmit(temp[i]);
	}
}
 162:	df 91       	pop	r29
 164:	cf 91       	pop	r28
 166:	1f 91       	pop	r17
 168:	0f 91       	pop	r16
 16a:	ff 90       	pop	r15
 16c:	ef 90       	pop	r14
 16e:	08 95       	ret

00000170 <wifiDirect_connection>:
		uart_transmit2(temp[i]);
	}
}

void wifiDirect_connection() {
	PORTD ^= (1 << LED_YELLOW);
 170:	9b b1       	in	r25, 0x0b	; 11
 172:	80 e4       	ldi	r24, 0x40	; 64
 174:	89 27       	eor	r24, r25
 176:	8b b9       	out	0x0b, r24	; 11
	#else
		//round up by default
		__ticks_dc = (uint32_t)(ceil(fabs(__tmp)));
	#endif

	__builtin_avr_delay_cycles(__ticks_dc);
 178:	2f ef       	ldi	r18, 0xFF	; 255
 17a:	88 e0       	ldi	r24, 0x08	; 8
 17c:	9d e3       	ldi	r25, 0x3D	; 61
 17e:	21 50       	subi	r18, 0x01	; 1
 180:	80 40       	sbci	r24, 0x00	; 0
 182:	90 40       	sbci	r25, 0x00	; 0
 184:	e1 f7       	brne	.-8      	; 0x17e <wifiDirect_connection+0xe>
 186:	00 c0       	rjmp	.+0      	; 0x188 <wifiDirect_connection+0x18>
 188:	00 00       	nop
	_delay_ms(1000);
	uart_sendString(atCom1);
 18a:	80 e8       	ldi	r24, 0x80	; 128
 18c:	91 e0       	ldi	r25, 0x01	; 1
 18e:	0e 94 96 00 	call	0x12c	; 0x12c <uart_sendString>
 192:	2f e7       	ldi	r18, 0x7F	; 127
 194:	84 e8       	ldi	r24, 0x84	; 132
 196:	9e e1       	ldi	r25, 0x1E	; 30
 198:	21 50       	subi	r18, 0x01	; 1
 19a:	80 40       	sbci	r24, 0x00	; 0
 19c:	90 40       	sbci	r25, 0x00	; 0
 19e:	e1 f7       	brne	.-8      	; 0x198 <wifiDirect_connection+0x28>
 1a0:	00 c0       	rjmp	.+0      	; 0x1a2 <wifiDirect_connection+0x32>
 1a2:	00 00       	nop
	_delay_ms(500);
	uart_sendString(atCom2);
 1a4:	8e e5       	ldi	r24, 0x5E	; 94
 1a6:	91 e0       	ldi	r25, 0x01	; 1
 1a8:	0e 94 96 00 	call	0x12c	; 0x12c <uart_sendString>
 1ac:	2f e7       	ldi	r18, 0x7F	; 127
 1ae:	84 e8       	ldi	r24, 0x84	; 132
 1b0:	9e e1       	ldi	r25, 0x1E	; 30
 1b2:	21 50       	subi	r18, 0x01	; 1
 1b4:	80 40       	sbci	r24, 0x00	; 0
 1b6:	90 40       	sbci	r25, 0x00	; 0
 1b8:	e1 f7       	brne	.-8      	; 0x1b2 <wifiDirect_connection+0x42>
 1ba:	00 c0       	rjmp	.+0      	; 0x1bc <wifiDirect_connection+0x4c>
 1bc:	00 00       	nop
	_delay_ms(500);
	uart_sendString(atCom3);
 1be:	85 e1       	ldi	r24, 0x15	; 21
 1c0:	91 e0       	ldi	r25, 0x01	; 1
 1c2:	0e 94 96 00 	call	0x12c	; 0x12c <uart_sendString>
 1c6:	2f e7       	ldi	r18, 0x7F	; 127
 1c8:	84 e8       	ldi	r24, 0x84	; 132
 1ca:	9e e1       	ldi	r25, 0x1E	; 30
 1cc:	21 50       	subi	r18, 0x01	; 1
 1ce:	80 40       	sbci	r24, 0x00	; 0
 1d0:	90 40       	sbci	r25, 0x00	; 0
 1d2:	e1 f7       	brne	.-8      	; 0x1cc <wifiDirect_connection+0x5c>
 1d4:	00 c0       	rjmp	.+0      	; 0x1d6 <wifiDirect_connection+0x66>
 1d6:	00 00       	nop
	_delay_ms(500);
	uart_sendString(atCom4);
 1d8:	80 e0       	ldi	r24, 0x00	; 0
 1da:	91 e0       	ldi	r25, 0x01	; 1
 1dc:	0e 94 96 00 	call	0x12c	; 0x12c <uart_sendString>
	PORTD ^= (1 << LED_YELLOW);
 1e0:	9b b1       	in	r25, 0x0b	; 11
 1e2:	80 e4       	ldi	r24, 0x40	; 64
 1e4:	89 27       	eor	r24, r25
 1e6:	8b b9       	out	0x0b, r24	; 11
 1e8:	08 95       	ret

000001ea <__vector_20>:
}

ISR(USART0_RX_vect) {
 1ea:	1f 92       	push	r1
 1ec:	0f 92       	push	r0
 1ee:	0f b6       	in	r0, 0x3f	; 63
 1f0:	0f 92       	push	r0
 1f2:	11 24       	eor	r1, r1
 1f4:	2f 93       	push	r18
 1f6:	3f 93       	push	r19
 1f8:	4f 93       	push	r20
 1fa:	5f 93       	push	r21
 1fc:	6f 93       	push	r22
 1fe:	7f 93       	push	r23
 200:	8f 93       	push	r24
 202:	9f 93       	push	r25
 204:	af 93       	push	r26
 206:	bf 93       	push	r27
 208:	ef 93       	push	r30
 20a:	ff 93       	push	r31
	REC = UDR0;
 20c:	80 91 c6 00 	lds	r24, 0x00C6
 210:	80 93 8a 01 	sts	0x018A, r24
	uart_transmit2(REC);
 214:	80 91 8a 01 	lds	r24, 0x018A
 218:	0e 94 8e 00 	call	0x11c	; 0x11c <uart_transmit2>
}
 21c:	ff 91       	pop	r31
 21e:	ef 91       	pop	r30
 220:	bf 91       	pop	r27
 222:	af 91       	pop	r26
 224:	9f 91       	pop	r25
 226:	8f 91       	pop	r24
 228:	7f 91       	pop	r23
 22a:	6f 91       	pop	r22
 22c:	5f 91       	pop	r21
 22e:	4f 91       	pop	r20
 230:	3f 91       	pop	r19
 232:	2f 91       	pop	r18
 234:	0f 90       	pop	r0
 236:	0f be       	out	0x3f, r0	; 63
 238:	0f 90       	pop	r0
 23a:	1f 90       	pop	r1
 23c:	18 95       	reti

0000023e <main>:

int main(void)
{
	DDRD |= (1 << LED_GREEN);
 23e:	55 9a       	sbi	0x0a, 5	; 10
	DDRD |= (1 << LED_YELLOW);
 240:	56 9a       	sbi	0x0a, 6	; 10
	DDRD |= (1 << LED_RED);
 242:	57 9a       	sbi	0x0a, 7	; 10
	
	PORTD &= ~(1 << LED_GREEN);
 244:	5d 98       	cbi	0x0b, 5	; 11
	PORTD &= ~(1 << LED_YELLOW);
 246:	5e 98       	cbi	0x0b, 6	; 11
	PORTD &= ~(1 << LED_RED);
 248:	5f 98       	cbi	0x0b, 7	; 11
	
	uart_init();
 24a:	0e 94 5d 00 	call	0xba	; 0xba <uart_init>
	uart_init2();
 24e:	0e 94 76 00 	call	0xec	; 0xec <uart_init2>
	
	wifiDirect_connection();
 252:	0e 94 b8 00 	call	0x170	; 0x170 <wifiDirect_connection>
	
    while(1)
    {
		PORTD ^= (1 << LED_GREEN);
 256:	90 e2       	ldi	r25, 0x20	; 32
 258:	8b b1       	in	r24, 0x0b	; 11
 25a:	89 27       	eor	r24, r25
 25c:	8b b9       	out	0x0b, r24	; 11
 25e:	2f e7       	ldi	r18, 0x7F	; 127
 260:	34 e8       	ldi	r19, 0x84	; 132
 262:	8e e1       	ldi	r24, 0x1E	; 30
 264:	21 50       	subi	r18, 0x01	; 1
 266:	30 40       	sbci	r19, 0x00	; 0
 268:	80 40       	sbci	r24, 0x00	; 0
 26a:	e1 f7       	brne	.-8      	; 0x264 <main+0x26>
 26c:	00 c0       	rjmp	.+0      	; 0x26e <main+0x30>
 26e:	00 00       	nop
 270:	f3 cf       	rjmp	.-26     	; 0x258 <main+0x1a>

00000272 <_exit>:
 272:	f8 94       	cli

00000274 <__stop_program>:
 274:	ff cf       	rjmp	.-2      	; 0x274 <__stop_program>
